; Function Attrs: mustprogress uwtable
define internal noundef zeroext i1 @_ZNSt17_Function_handlerIFbllbEZN5arrow7compute8internal12_GLOBAL__N_119PrimitiveFilterImplILi1ELb0EE13ExecREEFilterEvEUlllbE0_E9_M_invokeERKSt9_Any_dataOlSC_Ob(ptr noundef nonnull readonly align 8 captures(none) dereferenceable(16) %0, ptr noundef nonnull readonly align 8 captures(none) dereferenceable(8) %1, ptr noundef nonnull readonly align 8 captures(none) dereferenceable(8) %2, ptr noundef nonnull readonly align 1 captures(none) dereferenceable(1) %3) #1 align 2 {
  %.val = load ptr, ptr %0, align 8, !tbaa !908
  %.val5 = load i64, ptr %2, align 8, !tbaa !75
  %.val6 = load i8, ptr %3, align 1, !tbaa !795, !range !137, !noundef !138
  %5 = trunc nuw i8 %.val6 to i1
  br i1 %5, label %6, label %25

6:                                                ; preds = %4
  %.val4 = load i64, ptr %1, align 8, !tbaa !75
  %7 = getelementptr inbounds nuw i8, ptr %.val, i64 8
  %8 = load ptr, ptr %7, align 8, !tbaa !180
  %9 = getelementptr inbounds nuw i8, ptr %.val, i64 32
  %10 = load i64, ptr %9, align 8, !tbaa !183
  %11 = add nsw i64 %10, %.val4
  %12 = getelementptr inbounds nuw i8, ptr %.val, i64 64
  %13 = load ptr, ptr %12, align 8, !tbaa !186
  %14 = getelementptr inbounds nuw i8, ptr %.val, i64 88
  %15 = load i64, ptr %14, align 8, !tbaa !189
  tail call void @_ZN5arrow8internal10CopyBitmapEPKhllPhl(ptr noundef %8, i64 noundef %11, i64 noundef %.val5, ptr noundef %13, i64 noundef %15)
  %16 = getelementptr inbounds nuw i8, ptr %.val, i64 72
  %17 = load ptr, ptr %16, align 8, !tbaa !187
  %18 = load i64, ptr %14, align 8, !tbaa !189
  %19 = getelementptr inbounds i8, ptr %17, i64 %18
  %20 = getelementptr inbounds nuw i8, ptr %.val, i64 16
  %21 = load ptr, ptr %20, align 8, !tbaa !181
  %22 = getelementptr inbounds i8, ptr %21, i64 %.val4
  tail call void @llvm.memcpy.p0.p0.i64(ptr align 1 %19, ptr align 1 %22, i64 %.val5, i1 false)
  %23 = load i64, ptr %14, align 8, !tbaa !189
  %24 = add nsw i64 %23, %.val5
  store i64 %24, ptr %14, align 8, !tbaa !189
  br label %_ZSt10__invoke_rIbRZN5arrow7compute8internal12_GLOBAL__N_119PrimitiveFilterImplILi1ELb0EE13ExecREEFilterEvEUlllbE0_JllbEENSt9enable_ifIX16is_invocable_r_vIT_T0_DpT1_EES9_E4typeEOSA_DpOSB_.exit

25:                                               ; preds = %4
  %26 = getelementptr inbounds nuw i8, ptr %.val, i64 64
  %27 = load ptr, ptr %26, align 8, !tbaa !186
  %28 = getelementptr inbounds nuw i8, ptr %.val, i64 88
  %29 = load i64, ptr %28, align 8, !tbaa !189
  tail call void @_ZN5arrow8bit_util9SetBitsToEPhllb(ptr noundef %27, i64 noundef %29, i64 noundef %.val5, i1 noundef zeroext false)
  %30 = getelementptr inbounds nuw i8, ptr %.val, i64 72
  %31 = load ptr, ptr %30, align 8, !tbaa !187
  %32 = load i64, ptr %28, align 8, !tbaa !189
  %33 = getelementptr inbounds i8, ptr %31, i64 %32
  tail call void @llvm.memset.p0.i64(ptr align 1 %33, i8 0, i64 %.val5, i1 false)
  %34 = load i64, ptr %28, align 8, !tbaa !189
  %35 = add nsw i64 %34, %.val5
  store i64 %35, ptr %28, align 8, !tbaa !189
  br label %_ZSt10__invoke_rIbRZN5arrow7compute8internal12_GLOBAL__N_119PrimitiveFilterImplILi1ELb0EE13ExecREEFilterEvEUlllbE0_JllbEENSt9enable_ifIX16is_invocable_r_vIT_T0_DpT1_EES9_E4typeEOSA_DpOSB_.exit

_ZSt10__invoke_rIbRZN5arrow7compute8internal12_GLOBAL__N_119PrimitiveFilterImplILi1ELb0EE13ExecREEFilterEvEUlllbE0_JllbEENSt9enable_ifIX16is_invocable_r_vIT_T0_DpT1_EES9_E4typeEOSA_DpOSB_.exit: ; preds = %6, %25
  ret i1 true
}